target datalayout = "e-m:e-p270:32:32-p271:32:32-p272:64:64-i64:64-i128:128-f80:128-n8:16:32:64-S128"
target triple = "x86_64-pc-linux-gnu"

%class.ConvexVolumeTool = type { %struct.SampleTool, ptr, i32, float, float, float, [36 x float], i32, [12 x i32], i32 }
%struct.SampleTool = type { ptr }

@.str.11 = private unnamed_addr constant [81 x i8] c"LMB: Create new shape.  SHIFT+LMB: Delete existing shape (click inside a shape).\00", align 1
@.str.12 = private unnamed_addr constant [73 x i8] c"Click LMB to add new points. Click on the red point to finish the shape.\00", align 1
@.str.13 = private unnamed_addr constant [51 x i8] c"The shape will be convex hull of all added points.\00", align 1

; Function Attrs: mustprogress nounwind uwtable
define linkonce_odr dso_local noundef i32 @_Z9imguiRGBAhhhh(i8 noundef zeroext %0, i8 noundef zeroext %1, i8 noundef zeroext %2, i8 noundef zeroext %3) #0 comdat {
  %5 = alloca i8, align 1
  %6 = alloca i8, align 1
  %7 = alloca i8, align 1
  %8 = alloca i8, align 1
  store i8 %0, ptr %5, align 1
  store i8 %1, ptr %6, align 1
  store i8 %2, ptr %7, align 1
  store i8 %3, ptr %8, align 1
  %9 = load i8, ptr %5, align 1
  %10 = zext i8 %9 to i32
  %11 = load i8, ptr %6, align 1
  %12 = zext i8 %11 to i32
  %13 = shl i32 %12, 8
  %14 = or i32 %10, %13
  %15 = load i8, ptr %7, align 1
  %16 = zext i8 %15 to i32
  %17 = shl i32 %16, 16
  %18 = or i32 %14, %17
  %19 = load i8, ptr %8, align 1
  %20 = zext i8 %19 to i32
  %21 = shl i32 %20, 24
  %22 = or i32 %18, %21
  ret i32 %22
}

; Function Attrs: mustprogress uwtable
define dso_local void @_ZN16ConvexVolumeTool19handleRenderOverlayEPdS0_Pi(ptr noundef nonnull align 8 dereferenceable(232) %0, ptr noundef %1, ptr noundef %2, ptr noundef %3) unnamed_addr #1 align 2 {
  %5 = alloca ptr, align 8
  %6 = alloca ptr, align 8
  %7 = alloca ptr, align 8
  %8 = alloca ptr, align 8
  %9 = alloca i32, align 4
  store ptr %0, ptr %5, align 8
  store ptr %1, ptr %6, align 8
  store ptr %2, ptr %7, align 8
  store ptr %3, ptr %8, align 8
  %10 = load ptr, ptr %5, align 8
  %11 = load ptr, ptr %8, align 8
  %12 = getelementptr inbounds i32, ptr %11, i64 3
  %13 = load i32, ptr %12, align 4
  store i32 %13, ptr %9, align 4
  %14 = getelementptr inbounds %class.ConvexVolumeTool, ptr %10, i32 0, i32 7
  %15 = load i32, ptr %14, align 8
  %16 = icmp ne i32 %15, 0
  br i1 %16, label %21, label %17

17:                                               ; preds = %4
  %18 = load i32, ptr %9, align 4
  %19 = sub nsw i32 %18, 40
  %20 = call noundef i32 @_Z9imguiRGBAhhhh(i8 noundef zeroext -1, i8 noundef zeroext -1, i8 noundef zeroext -1, i8 noundef zeroext -64)
  call void @_Z13imguiDrawTextiiiPKcj(i32 noundef 280, i32 noundef %19, i32 noundef 0, ptr noundef @.str.11, i32 noundef %20)
  br label %28

21:                                               ; preds = %4
  %22 = load i32, ptr %9, align 4
  %23 = sub nsw i32 %22, 40
  %24 = call noundef i32 @_Z9imguiRGBAhhhh(i8 noundef zeroext -1, i8 noundef zeroext -1, i8 noundef zeroext -1, i8 noundef zeroext -64)
  call void @_Z13imguiDrawTextiiiPKcj(i32 noundef 280, i32 noundef %23, i32 noundef 0, ptr noundef @.str.12, i32 noundef %24)
  %25 = load i32, ptr %9, align 4
  %26 = sub nsw i32 %25, 60
  %27 = call noundef i32 @_Z9imguiRGBAhhhh(i8 noundef zeroext -1, i8 noundef zeroext -1, i8 noundef zeroext -1, i8 noundef zeroext -64)
  call void @_Z13imguiDrawTextiiiPKcj(i32 noundef 280, i32 noundef %26, i32 noundef 0, ptr noundef @.str.13, i32 noundef %27)
  br label %28

28:                                               ; preds = %21, %17
  ret void
}