; Function Attrs: mustprogress uwtable
define dso_local void @_ZN16ConvexVolumeTool19handleRenderOverlayEPdS0_Pi(ptr nocapture noundef nonnull readonly align 8 dereferenceable(232) %0, ptr nocapture readnone %1, ptr nocapture readnone %2, ptr nocapture noundef readonly %3) unnamed_addr #1 align 2 {
  %5 = getelementptr inbounds i8, ptr %3, i64 12
  %6 = load i32, ptr %5, align 4
  %7 = getelementptr inbounds i8, ptr %0, i64 176
  %8 = load i32, ptr %7, align 8
  %.not = icmp eq i32 %8, 0
  %9 = add nsw i32 %6, -40
  br i1 %.not, label %10, label %11

10:                                               ; preds = %4
  tail call void @_Z13imguiDrawTextiiiPKcj(i32 noundef 280, i32 noundef %9, i32 noundef 0, ptr noundef nonnull @.str.11, i32 noundef -1056964609)
  br label %13

11:                                               ; preds = %4
  tail call void @_Z13imguiDrawTextiiiPKcj(i32 noundef 280, i32 noundef %9, i32 noundef 0, ptr noundef nonnull @.str.12, i32 noundef -1056964609)
  %12 = add nsw i32 %6, -60
  tail call void @_Z13imguiDrawTextiiiPKcj(i32 noundef 280, i32 noundef %12, i32 noundef 0, ptr noundef nonnull @.str.13, i32 noundef -1056964609)
  br label %13

13:                                               ; preds = %11, %10
  ret void
}